target datalayout = "e-m:e-p270:32:32-p271:32:32-p272:64:64-i64:64-i128:128-f80:128-n8:16:32:64-S128"
target triple = "x86_64-pc-linux-gnu"

%struct.PACKET = type { ptr, i64 }

; Function Attrs: inlinehint nounwind uwtable
define internal i64 @ossl_quic_vlint_decode_len(i8 noundef zeroext %0) #3 {
  %2 = alloca i8, align 1
  store i8 %0, ptr %2, align 1, !tbaa !56
  %3 = load i8, ptr %2, align 1, !tbaa !56
  %4 = zext i8 %3 to i32
  %5 = and i32 %4, 192
  %6 = ashr i32 %5, 6
  %7 = shl i32 1, %6
  %8 = zext i32 %7 to i64
  ret i64 %8
}

; Function Attrs: inlinehint nounwind uwtable
define internal i64 @PACKET_remaining(ptr noundef %0) #3 {
  %2 = alloca ptr, align 8
  store ptr %0, ptr %2, align 8, !tbaa !75
  %3 = load ptr, ptr %2, align 8, !tbaa !75
  %4 = getelementptr inbounds nuw %struct.PACKET, ptr %3, i32 0, i32 1
  %5 = load i64, ptr %4, align 8, !tbaa !85
  ret i64 %5
}

; Function Attrs: inlinehint nounwind uwtable
define internal i32 @PACKET_get_quic_vlint(ptr noundef %0, ptr noundef %1) #3 {
  %3 = alloca i32, align 4
  %4 = alloca ptr, align 8
  %5 = alloca ptr, align 8
  %6 = alloca i64, align 8
  %7 = alloca i32, align 4
  store ptr %0, ptr %4, align 8, !tbaa !75
  store ptr %1, ptr %5, align 8, !tbaa !76
  call void @llvm.lifetime.start.p0(i64 8, ptr %6) #7
  %8 = load ptr, ptr %4, align 8, !tbaa !75
  %9 = call i64 @PACKET_remaining(ptr noundef %8)
  %10 = icmp ult i64 %9, 1
  br i1 %10, label %11, label %12

11:                                               ; preds = %2
  store i32 0, ptr %3, align 4
  store i32 1, ptr %7, align 4
  br label %31

12:                                               ; preds = %2
  %13 = load ptr, ptr %4, align 8, !tbaa !75
  %14 = getelementptr inbounds nuw %struct.PACKET, ptr %13, i32 0, i32 0
  %15 = load ptr, ptr %14, align 8, !tbaa !80
  %16 = load i8, ptr %15, align 1, !tbaa !56
  %17 = call i64 @ossl_quic_vlint_decode_len(i8 noundef zeroext %16)
  store i64 %17, ptr %6, align 8, !tbaa !8
  %18 = load ptr, ptr %4, align 8, !tbaa !75
  %19 = call i64 @PACKET_remaining(ptr noundef %18)
  %20 = load i64, ptr %6, align 8, !tbaa !8
  %21 = icmp ult i64 %19, %20
  br i1 %21, label %22, label %23

22:                                               ; preds = %12
  store i32 0, ptr %3, align 4
  store i32 1, ptr %7, align 4
  br label %31

23:                                               ; preds = %12
  %24 = load ptr, ptr %4, align 8, !tbaa !75
  %25 = getelementptr inbounds nuw %struct.PACKET, ptr %24, i32 0, i32 0
  %26 = load ptr, ptr %25, align 8, !tbaa !80
  %27 = call i64 @ossl_quic_vlint_decode_unchecked(ptr noundef %26)
  %28 = load ptr, ptr %5, align 8, !tbaa !76
  store i64 %27, ptr %28, align 8, !tbaa !8
  %29 = load ptr, ptr %4, align 8, !tbaa !75
  %30 = load i64, ptr %6, align 8, !tbaa !8
  call void @packet_forward(ptr noundef %29, i64 noundef %30)
  store i32 1, ptr %3, align 4
  store i32 1, ptr %7, align 4
  br label %31

31:                                               ; preds = %23, %22, %11
  call void @llvm.lifetime.end.p0(i64 8, ptr %6) #7
  %32 = load i32, ptr %3, align 4
  ret i32 %32
}

; Function Attrs: inlinehint nounwind uwtable
define internal void @packet_forward(ptr noundef %0, i64 noundef %1) #3 {
  %3 = alloca ptr, align 8
  %4 = alloca i64, align 8
  store ptr %0, ptr %3, align 8, !tbaa !75
  store i64 %1, ptr %4, align 8, !tbaa !8
  %5 = load i64, ptr %4, align 8, !tbaa !8
  %6 = load ptr, ptr %3, align 8, !tbaa !75
  %7 = getelementptr inbounds nuw %struct.PACKET, ptr %6, i32 0, i32 0
  %8 = load ptr, ptr %7, align 8, !tbaa !80
  %9 = getelementptr inbounds nuw i8, ptr %8, i64 %5
  store ptr %9, ptr %7, align 8, !tbaa !80
  %10 = load i64, ptr %4, align 8, !tbaa !8
  %11 = load ptr, ptr %3, align 8, !tbaa !75
  %12 = getelementptr inbounds nuw %struct.PACKET, ptr %11, i32 0, i32 1
  %13 = load i64, ptr %12, align 8, !tbaa !85
  %14 = sub i64 %13, %10
  store i64 %14, ptr %12, align 8, !tbaa !85
  ret void
}

; Function Attrs: inlinehint nounwind uwtable
define internal i32 @PACKET_peek_net_8(ptr noundef %0, ptr noundef %1) #3 {
  %3 = alloca i32, align 4
  %4 = alloca ptr, align 8
  %5 = alloca ptr, align 8
  store ptr %0, ptr %4, align 8, !tbaa !75
  store ptr %1, ptr %5, align 8, !tbaa !76
  %6 = load ptr, ptr %4, align 8, !tbaa !75
  %7 = call i64 @PACKET_remaining(ptr noundef %6)
  %8 = icmp ult i64 %7, 8
  br i1 %8, label %9, label %10

9:                                                ; preds = %2
  store i32 0, ptr %3, align 4
  br label %87

10:                                               ; preds = %2
  %11 = load ptr, ptr %4, align 8, !tbaa !75
  %12 = getelementptr inbounds nuw %struct.PACKET, ptr %11, i32 0, i32 0
  %13 = load ptr, ptr %12, align 8, !tbaa !80
  %14 = load i8, ptr %13, align 1, !tbaa !56
  %15 = zext i8 %14 to i64
  %16 = shl i64 %15, 56
  %17 = load ptr, ptr %5, align 8, !tbaa !76
  store i64 %16, ptr %17, align 8, !tbaa !8
  %18 = load ptr, ptr %4, align 8, !tbaa !75
  %19 = getelementptr inbounds nuw %struct.PACKET, ptr %18, i32 0, i32 0
  %20 = load ptr, ptr %19, align 8, !tbaa !80
  %21 = getelementptr inbounds i8, ptr %20, i64 1
  %22 = load i8, ptr %21, align 1, !tbaa !56
  %23 = zext i8 %22 to i64
  %24 = shl i64 %23, 48
  %25 = load ptr, ptr %5, align 8, !tbaa !76
  %26 = load i64, ptr %25, align 8, !tbaa !8
  %27 = or i64 %26, %24
  store i64 %27, ptr %25, align 8, !tbaa !8
  %28 = load ptr, ptr %4, align 8, !tbaa !75
  %29 = getelementptr inbounds nuw %struct.PACKET, ptr %28, i32 0, i32 0
  %30 = load ptr, ptr %29, align 8, !tbaa !80
  %31 = getelementptr inbounds i8, ptr %30, i64 2
  %32 = load i8, ptr %31, align 1, !tbaa !56
  %33 = zext i8 %32 to i64
  %34 = shl i64 %33, 40
  %35 = load ptr, ptr %5, align 8, !tbaa !76
  %36 = load i64, ptr %35, align 8, !tbaa !8
  %37 = or i64 %36, %34
  store i64 %37, ptr %35, align 8, !tbaa !8
  %38 = load ptr, ptr %4, align 8, !tbaa !75
  %39 = getelementptr inbounds nuw %struct.PACKET, ptr %38, i32 0, i32 0
  %40 = load ptr, ptr %39, align 8, !tbaa !80
  %41 = getelementptr inbounds i8, ptr %40, i64 3
  %42 = load i8, ptr %41, align 1, !tbaa !56
  %43 = zext i8 %42 to i64
  %44 = shl i64 %43, 32
  %45 = load ptr, ptr %5, align 8, !tbaa !76
  %46 = load i64, ptr %45, align 8, !tbaa !8
  %47 = or i64 %46, %44
  store i64 %47, ptr %45, align 8, !tbaa !8
  %48 = load ptr, ptr %4, align 8, !tbaa !75
  %49 = getelementptr inbounds nuw %struct.PACKET, ptr %48, i32 0, i32 0
  %50 = load ptr, ptr %49, align 8, !tbaa !80
  %51 = getelementptr inbounds i8, ptr %50, i64 4
  %52 = load i8, ptr %51, align 1, !tbaa !56
  %53 = zext i8 %52 to i64
  %54 = shl i64 %53, 24
  %55 = load ptr, ptr %5, align 8, !tbaa !76
  %56 = load i64, ptr %55, align 8, !tbaa !8
  %57 = or i64 %56, %54
  store i64 %57, ptr %55, align 8, !tbaa !8
  %58 = load ptr, ptr %4, align 8, !tbaa !75
  %59 = getelementptr inbounds nuw %struct.PACKET, ptr %58, i32 0, i32 0
  %60 = load ptr, ptr %59, align 8, !tbaa !80
  %61 = getelementptr inbounds i8, ptr %60, i64 5
  %62 = load i8, ptr %61, align 1, !tbaa !56
  %63 = zext i8 %62 to i64
  %64 = shl i64 %63, 16
  %65 = load ptr, ptr %5, align 8, !tbaa !76
  %66 = load i64, ptr %65, align 8, !tbaa !8
  %67 = or i64 %66, %64
  store i64 %67, ptr %65, align 8, !tbaa !8
  %68 = load ptr, ptr %4, align 8, !tbaa !75
  %69 = getelementptr inbounds nuw %struct.PACKET, ptr %68, i32 0, i32 0
  %70 = load ptr, ptr %69, align 8, !tbaa !80
  %71 = getelementptr inbounds i8, ptr %70, i64 6
  %72 = load i8, ptr %71, align 1, !tbaa !56
  %73 = zext i8 %72 to i64
  %74 = shl i64 %73, 8
  %75 = load ptr, ptr %5, align 8, !tbaa !76
  %76 = load i64, ptr %75, align 8, !tbaa !8
  %77 = or i64 %76, %74
  store i64 %77, ptr %75, align 8, !tbaa !8
  %78 = load ptr, ptr %4, align 8, !tbaa !75
  %79 = getelementptr inbounds nuw %struct.PACKET, ptr %78, i32 0, i32 0
  %80 = load ptr, ptr %79, align 8, !tbaa !80
  %81 = getelementptr inbounds i8, ptr %80, i64 7
  %82 = load i8, ptr %81, align 1, !tbaa !56
  %83 = zext i8 %82 to i64
  %84 = load ptr, ptr %5, align 8, !tbaa !76
  %85 = load i64, ptr %84, align 8, !tbaa !8
  %86 = or i64 %85, %83
  store i64 %86, ptr %84, align 8, !tbaa !8
  store i32 1, ptr %3, align 4
  br label %87

87:                                               ; preds = %10, %9
  %88 = load i32, ptr %3, align 4
  ret i32 %88
}

; Function Attrs: nounwind uwtable
define i32 @ossl_quic_wire_skip_frame_header(ptr noundef %0, ptr noundef %1) #0 {
  %3 = alloca ptr, align 8
  %4 = alloca ptr, align 8
  store ptr %0, ptr %3, align 8, !tbaa !75
  store ptr %1, ptr %4, align 8, !tbaa !76
  %5 = load ptr, ptr %3, align 8, !tbaa !75
  %6 = load ptr, ptr %4, align 8, !tbaa !76
  %7 = call i32 @PACKET_get_quic_vlint(ptr noundef %5, ptr noundef %6)
  ret i32 %7
}

; Function Attrs: inlinehint nounwind uwtable
define internal i32 @PACKET_get_net_8(ptr noundef %0, ptr noundef %1) #3 {
  %3 = alloca i32, align 4
  %4 = alloca ptr, align 8
  %5 = alloca ptr, align 8
  store ptr %0, ptr %4, align 8, !tbaa !75
  store ptr %1, ptr %5, align 8, !tbaa !76
  %6 = load ptr, ptr %4, align 8, !tbaa !75
  %7 = load ptr, ptr %5, align 8, !tbaa !76
  %8 = call i32 @PACKET_peek_net_8(ptr noundef %6, ptr noundef %7)
  %9 = icmp ne i32 %8, 0
  br i1 %9, label %11, label %10

10:                                               ; preds = %2
  store i32 0, ptr %3, align 4
  br label %13

11:                                               ; preds = %2
  %12 = load ptr, ptr %4, align 8, !tbaa !75
  call void @packet_forward(ptr noundef %12, i64 noundef 8)
  store i32 1, ptr %3, align 4
  br label %13

13:                                               ; preds = %11, %10
  %14 = load i32, ptr %3, align 4
  ret i32 %14
}

; Function Attrs: nounwind uwtable
define internal i32 @expect_frame_header(ptr noundef %0, i64 noundef %1) #0 {
  %3 = alloca i32, align 4
  %4 = alloca ptr, align 8
  %5 = alloca i64, align 8
  %6 = alloca i64, align 8
  %7 = alloca i32, align 4
  store ptr %0, ptr %4, align 8, !tbaa !75
  store i64 %1, ptr %5, align 8, !tbaa !8
  call void @llvm.lifetime.start.p0(i64 8, ptr %6) #7
  %8 = load ptr, ptr %4, align 8, !tbaa !75
  %9 = call i32 @ossl_quic_wire_skip_frame_header(ptr noundef %8, ptr noundef %6)
  %10 = icmp ne i32 %9, 0
  br i1 %10, label %11, label %15

11:                                               ; preds = %2
  %12 = load i64, ptr %6, align 8, !tbaa !8
  %13 = load i64, ptr %5, align 8, !tbaa !8
  %14 = icmp ne i64 %12, %13
  br i1 %14, label %15, label %16

15:                                               ; preds = %11, %2
  store i32 0, ptr %3, align 4
  store i32 1, ptr %7, align 4
  br label %17

16:                                               ; preds = %11
  store i32 1, ptr %3, align 4
  store i32 1, ptr %7, align 4
  br label %17

17:                                               ; preds = %16, %15
  call void @llvm.lifetime.end.p0(i64 8, ptr %6) #7
  %18 = load i32, ptr %3, align 4
  ret i32 %18
}

; Function Attrs: nounwind uwtable
define i32 @ossl_quic_wire_decode_frame_path_response(ptr noundef %0, ptr noundef %1) #0 {
  %3 = alloca i32, align 4
  %4 = alloca ptr, align 8
  %5 = alloca ptr, align 8
  store ptr %0, ptr %4, align 8, !tbaa !75
  store ptr %1, ptr %5, align 8, !tbaa !76
  %6 = load ptr, ptr %4, align 8, !tbaa !75
  %7 = call i32 @expect_frame_header(ptr noundef %6, i64 noundef 27)
  %8 = icmp ne i32 %7, 0
  br i1 %8, label %9, label %14

9:                                                ; preds = %2
  %10 = load ptr, ptr %4, align 8, !tbaa !75
  %11 = load ptr, ptr %5, align 8, !tbaa !76
  %12 = call i32 @PACKET_get_net_8(ptr noundef %10, ptr noundef %11)
  %13 = icmp ne i32 %12, 0
  br i1 %13, label %15, label %14

14:                                               ; preds = %9, %2
  store i32 0, ptr %3, align 4
  br label %16

15:                                               ; preds = %9
  store i32 1, ptr %3, align 4
  br label %16

16:                                               ; preds = %15, %14
  %17 = load i32, ptr %3, align 4
  ret i32 %17
}