; Function Attrs: nounwind uwtable
define range(i32 0, 2) i32 @ossl_quic_wire_decode_frame_path_response(ptr noundef captures(none) %0, ptr noundef writeonly captures(none) %1) local_unnamed_addr #2 {
  %3 = getelementptr i8, ptr %0, i64 8
  %.val.i.i.i = load i64, ptr %3, align 8, !tbaa !52
  %4 = icmp eq i64 %.val.i.i.i, 0
  br i1 %4, label %expect_frame_header.exit.thread, label %5

5:                                                ; preds = %2
  %6 = load ptr, ptr %0, align 8, !tbaa !54
  %7 = load i8, ptr %6, align 1, !tbaa !55
  %8 = lshr i8 %7, 6
  %9 = zext nneg i8 %8 to i32
  %10 = shl nuw nsw i32 1, %9
  %11 = zext nneg i32 %10 to i64
  %12 = icmp ult i64 %.val.i.i.i, %11
  br i1 %12, label %expect_frame_header.exit.thread, label %expect_frame_header.exit

expect_frame_header.exit:                         ; preds = %5
  %13 = tail call i64 @ossl_quic_vlint_decode_unchecked(ptr noundef nonnull %6) #12
  %14 = load ptr, ptr %0, align 8, !tbaa !54
  %15 = getelementptr inbounds nuw i8, ptr %14, i64 %11
  store ptr %15, ptr %0, align 8, !tbaa !54
  %16 = load i64, ptr %3, align 8, !tbaa !52
  %17 = sub i64 %16, %11
  store i64 %17, ptr %3, align 8, !tbaa !52
  %.not2.i.not = icmp ne i64 %13, 27
  %18 = icmp ult i64 %17, 8
  %or.cond = select i1 %.not2.i.not, i1 true, i1 %18
  br i1 %or.cond, label %expect_frame_header.exit.thread, label %PACKET_get_net_8.exit

PACKET_get_net_8.exit:                            ; preds = %expect_frame_header.exit
  %19 = load i8, ptr %15, align 1, !tbaa !55
  %20 = zext i8 %19 to i64
  %21 = shl nuw i64 %20, 56
  store i64 %21, ptr %1, align 8, !tbaa !56
  %22 = getelementptr inbounds nuw i8, ptr %15, i64 1
  %23 = load i8, ptr %22, align 1, !tbaa !55
  %24 = zext i8 %23 to i64
  %25 = shl nuw nsw i64 %24, 48
  %26 = or disjoint i64 %25, %21
  store i64 %26, ptr %1, align 8, !tbaa !56
  %27 = getelementptr inbounds nuw i8, ptr %15, i64 2
  %28 = load i8, ptr %27, align 1, !tbaa !55
  %29 = zext i8 %28 to i64
  %30 = shl nuw nsw i64 %29, 40
  %31 = or disjoint i64 %30, %26
  store i64 %31, ptr %1, align 8, !tbaa !56
  %32 = getelementptr inbounds nuw i8, ptr %15, i64 3
  %33 = load i8, ptr %32, align 1, !tbaa !55
  %34 = zext i8 %33 to i64
  %35 = shl nuw nsw i64 %34, 32
  %36 = or disjoint i64 %35, %31
  store i64 %36, ptr %1, align 8, !tbaa !56
  %37 = getelementptr inbounds nuw i8, ptr %15, i64 4
  %38 = load i8, ptr %37, align 1, !tbaa !55
  %39 = zext i8 %38 to i64
  %40 = shl nuw nsw i64 %39, 24
  %41 = or disjoint i64 %40, %36
  store i64 %41, ptr %1, align 8, !tbaa !56
  %42 = getelementptr inbounds nuw i8, ptr %15, i64 5
  %43 = load i8, ptr %42, align 1, !tbaa !55
  %44 = zext i8 %43 to i64
  %45 = shl nuw nsw i64 %44, 16
  %46 = or disjoint i64 %45, %41
  store i64 %46, ptr %1, align 8, !tbaa !56
  %47 = getelementptr inbounds nuw i8, ptr %15, i64 6
  %48 = load i8, ptr %47, align 1, !tbaa !55
  %49 = zext i8 %48 to i64
  %50 = shl nuw nsw i64 %49, 8
  %51 = or i64 %50, %46
  store i64 %51, ptr %1, align 8, !tbaa !56
  %52 = getelementptr inbounds nuw i8, ptr %15, i64 7
  %53 = load i8, ptr %52, align 1, !tbaa !55
  %54 = zext i8 %53 to i64
  %55 = or i64 %51, %54
  store i64 %55, ptr %1, align 8, !tbaa !56
  %56 = getelementptr inbounds nuw i8, ptr %15, i64 8
  store ptr %56, ptr %0, align 8, !tbaa !54
  %57 = load i64, ptr %3, align 8, !tbaa !52
  %58 = add i64 %57, -8
  store i64 %58, ptr %3, align 8, !tbaa !52
  br label %expect_frame_header.exit.thread

expect_frame_header.exit.thread:                  ; preds = %5, %2, %PACKET_get_net_8.exit, %expect_frame_header.exit
  %.0 = phi i32 [ 0, %expect_frame_header.exit ], [ 1, %PACKET_get_net_8.exit ], [ 0, %2 ], [ 0, %5 ]
  ret i32 %.0
}